; generated by ARM C/C++ Compiler, RVCT4.0 [Build 728]
; commandline ArmCC [--debug -c --asm --interleave -o..\OBJ\ov7725.o --depend=..\OBJ\ov7725.d --cpu=Cortex-M3 --apcs=interwork -O0 -I..\..\Libraries\STM32F10x_StdPeriph_Driver\inc -I..\..\Libraries\CMSIS\CM3\CoreSupport -I..\..\Libraries\CMSIS\CM3\DeviceSupport\ST\STM32F10x -I..\..\USER\INC -IC:\Keil\ARM\INC -IC:\Keil\ARM\INC\ST\STM32F10x -D__MICROLIB -DUSE_STDPERIPH_DRIVER -DSTM32F10X_HD --omf_browse=..\OBJ\ov7725.crf ..\..\USER\SRC\OV7725.c]
                          THUMB

                          AREA ||.text||, CODE, READONLY, ALIGN=1

                  OV7725_WriteReg PROC
;;;170      */
;;;171    uint8_t OV7725_WriteReg(uint16_t Addr, uint8_t Data)
000000  b570              PUSH     {r4-r6,lr}
;;;172    {
000002  4604              MOV      r4,r0
000004  460d              MOV      r5,r1
;;;173     	StartI2C0();
000006  f7fffffe          BL       StartI2C0
;;;174    	if(0==I2CWrite0(OV7725_DEVICE_WRITE_ADDRESS))           //CMOS器件地址（写）
00000a  2042              MOVS     r0,#0x42
00000c  f7fffffe          BL       I2CWrite0
000010  b918              CBNZ     r0,|L1.26|
;;;175    	{
;;;176    		StopI2C0();
000012  f7fffffe          BL       StopI2C0
;;;177    		return(0);
000016  2000              MOVS     r0,#0
                  |L1.24|
;;;178    	}
;;;179    	delay_us(100);
;;;180      	if(0==I2CWrite0(Addr))         //CMOS寄存器地址
;;;181    	{
;;;182    		StopI2C0();
;;;183    		return(0);
;;;184    	}
;;;185    	delay_us(100);
;;;186      	if(0==I2CWrite0(Data))       //待写入指定寄存器的值
;;;187    	{
;;;188    		StopI2C0();
;;;189    		return(0);
;;;190    	}
;;;191      	StopI2C0();
;;;192    	
;;;193      	return(1);
;;;194    }
000018  bd70              POP      {r4-r6,pc}
                  |L1.26|
00001a  2064              MOVS     r0,#0x64              ;179
00001c  f7fffffe          BL       delay_us
000020  b2e0              UXTB     r0,r4                 ;180
000022  f7fffffe          BL       I2CWrite0
000026  b918              CBNZ     r0,|L1.48|
000028  f7fffffe          BL       StopI2C0
00002c  2000              MOVS     r0,#0                 ;183
00002e  e7f3              B        |L1.24|
                  |L1.48|
000030  2064              MOVS     r0,#0x64              ;185
000032  f7fffffe          BL       delay_us
000036  4628              MOV      r0,r5                 ;186
000038  f7fffffe          BL       I2CWrite0
00003c  b918              CBNZ     r0,|L1.70|
00003e  f7fffffe          BL       StopI2C0
000042  2000              MOVS     r0,#0                 ;189
000044  e7e8              B        |L1.24|
                  |L1.70|
000046  f7fffffe          BL       StopI2C0
00004a  2001              MOVS     r0,#1                 ;193
00004c  e7e4              B        |L1.24|
;;;195    
                          ENDP

                  set_Cmos7725reg PROC
;;;37     ***************************************************************************/
;;;38     void set_Cmos7725reg(void)   //寄存器设置备份
00004e  b510              PUSH     {r4,lr}
;;;39     {
;;;40     	OV7725_WriteReg(0x32,0x00);
000050  2100              MOVS     r1,#0
000052  2032              MOVS     r0,#0x32
000054  f7fffffe          BL       OV7725_WriteReg
;;;41     	OV7725_WriteReg(0x2a,0x00);
000058  2100              MOVS     r1,#0
00005a  202a              MOVS     r0,#0x2a
00005c  f7fffffe          BL       OV7725_WriteReg
;;;42     	OV7725_WriteReg(0x11,0x00);
000060  2100              MOVS     r1,#0
000062  2011              MOVS     r0,#0x11
000064  f7fffffe          BL       OV7725_WriteReg
;;;43     	OV7725_WriteReg(0x12,0x46);
000068  2146              MOVS     r1,#0x46
00006a  2012              MOVS     r0,#0x12
00006c  f7fffffe          BL       OV7725_WriteReg
;;;44     	
;;;45     	OV7725_WriteReg(0x42,0x7f);
000070  217f              MOVS     r1,#0x7f
000072  2042              MOVS     r0,#0x42
000074  f7fffffe          BL       OV7725_WriteReg
;;;46     	OV7725_WriteReg(0x4d,0x00);
000078  2100              MOVS     r1,#0
00007a  204d              MOVS     r0,#0x4d
00007c  f7fffffe          BL       OV7725_WriteReg
;;;47     	OV7725_WriteReg(0x63,0xf0);
000080  21f0              MOVS     r1,#0xf0
000082  2063              MOVS     r0,#0x63
000084  f7fffffe          BL       OV7725_WriteReg
;;;48     	OV7725_WriteReg(0x64,0x1f);
000088  211f              MOVS     r1,#0x1f
00008a  2064              MOVS     r0,#0x64
00008c  f7fffffe          BL       OV7725_WriteReg
;;;49     	OV7725_WriteReg(0x65,0xff);
000090  21ff              MOVS     r1,#0xff
000092  2065              MOVS     r0,#0x65
000094  f7fffffe          BL       OV7725_WriteReg
;;;50     	OV7725_WriteReg(0x66,0x00);
000098  2100              MOVS     r1,#0
00009a  2066              MOVS     r0,#0x66
00009c  f7fffffe          BL       OV7725_WriteReg
;;;51     	OV7725_WriteReg(0x67,0x00);
0000a0  2100              MOVS     r1,#0
0000a2  2067              MOVS     r0,#0x67
0000a4  f7fffffe          BL       OV7725_WriteReg
;;;52     	OV7725_WriteReg(0x69,0x00);  
0000a8  2100              MOVS     r1,#0
0000aa  2069              MOVS     r0,#0x69
0000ac  f7fffffe          BL       OV7725_WriteReg
;;;53     	
;;;54     	
;;;55     	OV7725_WriteReg(0x13,0xff);
0000b0  21ff              MOVS     r1,#0xff
0000b2  2013              MOVS     r0,#0x13
0000b4  f7fffffe          BL       OV7725_WriteReg
;;;56     	OV7725_WriteReg(0x0d,0x01);
0000b8  2101              MOVS     r1,#1
0000ba  200d              MOVS     r0,#0xd
0000bc  f7fffffe          BL       OV7725_WriteReg
;;;57     	OV7725_WriteReg(0x0f,0xc5);
0000c0  21c5              MOVS     r1,#0xc5
0000c2  200f              MOVS     r0,#0xf
0000c4  f7fffffe          BL       OV7725_WriteReg
;;;58     	OV7725_WriteReg(0x14,0x11);
0000c8  2111              MOVS     r1,#0x11
0000ca  2014              MOVS     r0,#0x14
0000cc  f7fffffe          BL       OV7725_WriteReg
;;;59     	OV7725_WriteReg(0x22,0xFF);
0000d0  21ff              MOVS     r1,#0xff
0000d2  2022              MOVS     r0,#0x22
0000d4  f7fffffe          BL       OV7725_WriteReg
;;;60     	OV7725_WriteReg(0x23,0x01);
0000d8  2101              MOVS     r1,#1
0000da  2023              MOVS     r0,#0x23
0000dc  f7fffffe          BL       OV7725_WriteReg
;;;61     	OV7725_WriteReg(0x24,0x76);
0000e0  2176              MOVS     r1,#0x76
0000e2  2024              MOVS     r0,#0x24
0000e4  f7fffffe          BL       OV7725_WriteReg
;;;62     	OV7725_WriteReg(0x25,0x50);
0000e8  2150              MOVS     r1,#0x50
0000ea  2025              MOVS     r0,#0x25
0000ec  f7fffffe          BL       OV7725_WriteReg
;;;63     	OV7725_WriteReg(0x26,0xa1);
0000f0  21a1              MOVS     r1,#0xa1
0000f2  2026              MOVS     r0,#0x26
0000f4  f7fffffe          BL       OV7725_WriteReg
;;;64     	OV7725_WriteReg(0x2b,0x00);
0000f8  2100              MOVS     r1,#0
0000fa  202b              MOVS     r0,#0x2b
0000fc  f7fffffe          BL       OV7725_WriteReg
;;;65     	OV7725_WriteReg(0x6b,0xaa);
000100  21aa              MOVS     r1,#0xaa
000102  206b              MOVS     r0,#0x6b
000104  f7fffffe          BL       OV7725_WriteReg
;;;66     	OV7725_WriteReg(0x13,0xff);
000108  21ff              MOVS     r1,#0xff
00010a  2013              MOVS     r0,#0x13
00010c  f7fffffe          BL       OV7725_WriteReg
;;;67     	
;;;68     	OV7725_WriteReg(0x90,0x0a);
000110  210a              MOVS     r1,#0xa
000112  2090              MOVS     r0,#0x90
000114  f7fffffe          BL       OV7725_WriteReg
;;;69     	OV7725_WriteReg(0x91,0x01);
000118  2101              MOVS     r1,#1
00011a  2091              MOVS     r0,#0x91
00011c  f7fffffe          BL       OV7725_WriteReg
;;;70     	OV7725_WriteReg(0x92,0x01);
000120  2101              MOVS     r1,#1
000122  2092              MOVS     r0,#0x92
000124  f7fffffe          BL       OV7725_WriteReg
;;;71     	OV7725_WriteReg(0x93,0x01);
000128  2101              MOVS     r1,#1
00012a  2093              MOVS     r0,#0x93
00012c  f7fffffe          BL       OV7725_WriteReg
;;;72     	
;;;73     	OV7725_WriteReg(0x94,0x5f);
000130  215f              MOVS     r1,#0x5f
000132  2094              MOVS     r0,#0x94
000134  f7fffffe          BL       OV7725_WriteReg
;;;74     	OV7725_WriteReg(0x95,0x53);
000138  2153              MOVS     r1,#0x53
00013a  2095              MOVS     r0,#0x95
00013c  f7fffffe          BL       OV7725_WriteReg
;;;75     	OV7725_WriteReg(0x96,0x11);
000140  2111              MOVS     r1,#0x11
000142  2096              MOVS     r0,#0x96
000144  f7fffffe          BL       OV7725_WriteReg
;;;76     	OV7725_WriteReg(0x97,0x1a);
000148  211a              MOVS     r1,#0x1a
00014a  2097              MOVS     r0,#0x97
00014c  f7fffffe          BL       OV7725_WriteReg
;;;77     	OV7725_WriteReg(0x98,0x3d);
000150  213d              MOVS     r1,#0x3d
000152  2098              MOVS     r0,#0x98
000154  f7fffffe          BL       OV7725_WriteReg
;;;78     	OV7725_WriteReg(0x99,0x5a);
000158  215a              MOVS     r1,#0x5a
00015a  2099              MOVS     r0,#0x99
00015c  f7fffffe          BL       OV7725_WriteReg
;;;79     	OV7725_WriteReg(0x9a,0x9e);
000160  219e              MOVS     r1,#0x9e
000162  209a              MOVS     r0,#0x9a
000164  f7fffffe          BL       OV7725_WriteReg
;;;80     	
;;;81     	OV7725_WriteReg(0x9b,0x00);
000168  2100              MOVS     r1,#0
00016a  209b              MOVS     r0,#0x9b
00016c  f7fffffe          BL       OV7725_WriteReg
;;;82     	OV7725_WriteReg(0x9c,0x30); 
000170  2130              MOVS     r1,#0x30
000172  209c              MOVS     r0,#0x9c
000174  f7fffffe          BL       OV7725_WriteReg
;;;83     	OV7725_WriteReg(0xa7,0x40);  
000178  2140              MOVS     r1,#0x40
00017a  20a7              MOVS     r0,#0xa7
00017c  f7fffffe          BL       OV7725_WriteReg
;;;84     	OV7725_WriteReg(0xa8,0x40);
000180  2140              MOVS     r1,#0x40
000182  20a8              MOVS     r0,#0xa8
000184  f7fffffe          BL       OV7725_WriteReg
;;;85     	OV7725_WriteReg(0xa9,0x80);
000188  2180              MOVS     r1,#0x80
00018a  20a9              MOVS     r0,#0xa9
00018c  f7fffffe          BL       OV7725_WriteReg
;;;86     	OV7725_WriteReg(0xaa,0x80);
000190  2180              MOVS     r1,#0x80
000192  20aa              MOVS     r0,#0xaa
000194  f7fffffe          BL       OV7725_WriteReg
;;;87     	
;;;88     	OV7725_WriteReg(0x9e,0x11);
000198  2111              MOVS     r1,#0x11
00019a  209e              MOVS     r0,#0x9e
00019c  f7fffffe          BL       OV7725_WriteReg
;;;89     	OV7725_WriteReg(0x9f,0x02);
0001a0  2102              MOVS     r1,#2
0001a2  209f              MOVS     r0,#0x9f
0001a4  f7fffffe          BL       OV7725_WriteReg
;;;90     	OV7725_WriteReg(0xa6,0x06);
0001a8  2106              MOVS     r1,#6
0001aa  20a6              MOVS     r0,#0xa6
0001ac  f7fffffe          BL       OV7725_WriteReg
;;;91     	
;;;92     	OV7725_WriteReg(0x7e,0x0c);
0001b0  210c              MOVS     r1,#0xc
0001b2  207e              MOVS     r0,#0x7e
0001b4  f7fffffe          BL       OV7725_WriteReg
;;;93     	OV7725_WriteReg(0x7f,0x16);
0001b8  2116              MOVS     r1,#0x16
0001ba  207f              MOVS     r0,#0x7f
0001bc  f7fffffe          BL       OV7725_WriteReg
;;;94     	OV7725_WriteReg(0x80,0x2a);
0001c0  212a              MOVS     r1,#0x2a
0001c2  2080              MOVS     r0,#0x80
0001c4  f7fffffe          BL       OV7725_WriteReg
;;;95     	OV7725_WriteReg(0x81,0x4e);
0001c8  214e              MOVS     r1,#0x4e
0001ca  2081              MOVS     r0,#0x81
0001cc  f7fffffe          BL       OV7725_WriteReg
;;;96     	OV7725_WriteReg(0x82,0x61);
0001d0  2161              MOVS     r1,#0x61
0001d2  2082              MOVS     r0,#0x82
0001d4  f7fffffe          BL       OV7725_WriteReg
;;;97     	OV7725_WriteReg(0x83,0x6f);
0001d8  216f              MOVS     r1,#0x6f
0001da  2083              MOVS     r0,#0x83
0001dc  f7fffffe          BL       OV7725_WriteReg
;;;98     	OV7725_WriteReg(0x84,0x7b);
0001e0  217b              MOVS     r1,#0x7b
0001e2  2084              MOVS     r0,#0x84
0001e4  f7fffffe          BL       OV7725_WriteReg
;;;99     	OV7725_WriteReg(0x85,0x86);
0001e8  2186              MOVS     r1,#0x86
0001ea  2085              MOVS     r0,#0x85
0001ec  f7fffffe          BL       OV7725_WriteReg
;;;100    	OV7725_WriteReg(0x86,0x8e);
0001f0  218e              MOVS     r1,#0x8e
0001f2  2086              MOVS     r0,#0x86
0001f4  f7fffffe          BL       OV7725_WriteReg
;;;101    	OV7725_WriteReg(0x87,0x97);
0001f8  2197              MOVS     r1,#0x97
0001fa  2087              MOVS     r0,#0x87
0001fc  f7fffffe          BL       OV7725_WriteReg
;;;102    	OV7725_WriteReg(0x88,0xa4);
000200  21a4              MOVS     r1,#0xa4
000202  2088              MOVS     r0,#0x88
000204  f7fffffe          BL       OV7725_WriteReg
;;;103    	OV7725_WriteReg(0x89,0xaf);
000208  21af              MOVS     r1,#0xaf
00020a  2089              MOVS     r0,#0x89
00020c  f7fffffe          BL       OV7725_WriteReg
;;;104    	OV7725_WriteReg(0x8a,0xc5);
000210  21c5              MOVS     r1,#0xc5
000212  208a              MOVS     r0,#0x8a
000214  f7fffffe          BL       OV7725_WriteReg
;;;105    	OV7725_WriteReg(0x8b,0xd7);
000218  21d7              MOVS     r1,#0xd7
00021a  208b              MOVS     r0,#0x8b
00021c  f7fffffe          BL       OV7725_WriteReg
;;;106    	OV7725_WriteReg(0x8c,0xe8);
000220  21e8              MOVS     r1,#0xe8
000222  208c              MOVS     r0,#0x8c
000224  f7fffffe          BL       OV7725_WriteReg
;;;107    	OV7725_WriteReg(0x8d,0x20);
000228  2120              MOVS     r1,#0x20
00022a  208d              MOVS     r0,#0x8d
00022c  f7fffffe          BL       OV7725_WriteReg
;;;108    	
;;;109    	OV7725_WriteReg(0x4e,0xef);
000230  21ef              MOVS     r1,#0xef
000232  204e              MOVS     r0,#0x4e
000234  f7fffffe          BL       OV7725_WriteReg
;;;110    	OV7725_WriteReg(0x4f,0x10); 
000238  2110              MOVS     r1,#0x10
00023a  204f              MOVS     r0,#0x4f
00023c  f7fffffe          BL       OV7725_WriteReg
;;;111    	OV7725_WriteReg(0x50,0x60);
000240  2160              MOVS     r1,#0x60
000242  2050              MOVS     r0,#0x50
000244  f7fffffe          BL       OV7725_WriteReg
;;;112    	OV7725_WriteReg(0x51,0x00);
000248  2100              MOVS     r1,#0
00024a  2051              MOVS     r0,#0x51
00024c  f7fffffe          BL       OV7725_WriteReg
;;;113    	OV7725_WriteReg(0x52,0x00);
000250  2100              MOVS     r1,#0
000252  2052              MOVS     r0,#0x52
000254  f7fffffe          BL       OV7725_WriteReg
;;;114    	OV7725_WriteReg(0x53,0x24);
000258  2124              MOVS     r1,#0x24
00025a  2053              MOVS     r0,#0x53
00025c  f7fffffe          BL       OV7725_WriteReg
;;;115    	OV7725_WriteReg(0x54,0x7a);
000260  217a              MOVS     r1,#0x7a
000262  2054              MOVS     r0,#0x54
000264  f7fffffe          BL       OV7725_WriteReg
;;;116    	OV7725_WriteReg(0x55,0xfc);
000268  21fc              MOVS     r1,#0xfc
00026a  2055              MOVS     r0,#0x55
00026c  f7fffffe          BL       OV7725_WriteReg
;;;117    	
;;;118    	OV7725_WriteReg(0x33,0x00);
000270  2100              MOVS     r1,#0
000272  2033              MOVS     r0,#0x33
000274  f7fffffe          BL       OV7725_WriteReg
;;;119    	OV7725_WriteReg(0x22,0x99);
000278  2199              MOVS     r1,#0x99
00027a  2022              MOVS     r0,#0x22
00027c  f7fffffe          BL       OV7725_WriteReg
;;;120    	OV7725_WriteReg(0x23,0x03);
000280  2103              MOVS     r1,#3
000282  2023              MOVS     r0,#0x23
000284  f7fffffe          BL       OV7725_WriteReg
;;;121    	OV7725_WriteReg(0x4a,0x00);
000288  2100              MOVS     r1,#0
00028a  204a              MOVS     r0,#0x4a
00028c  f7fffffe          BL       OV7725_WriteReg
;;;122    	OV7725_WriteReg(0x49,0x13);
000290  2113              MOVS     r1,#0x13
000292  2049              MOVS     r0,#0x49
000294  f7fffffe          BL       OV7725_WriteReg
;;;123    	OV7725_WriteReg(0x47,0x08);
000298  2108              MOVS     r1,#8
00029a  2047              MOVS     r0,#0x47
00029c  f7fffffe          BL       OV7725_WriteReg
;;;124    	OV7725_WriteReg(0x4b,0x14);
0002a0  2114              MOVS     r1,#0x14
0002a2  204b              MOVS     r0,#0x4b
0002a4  f7fffffe          BL       OV7725_WriteReg
;;;125    	OV7725_WriteReg(0x4c,0x17);
0002a8  2117              MOVS     r1,#0x17
0002aa  204c              MOVS     r0,#0x4c
0002ac  f7fffffe          BL       OV7725_WriteReg
;;;126    	OV7725_WriteReg(0x46,0x05);
0002b0  2105              MOVS     r1,#5
0002b2  2046              MOVS     r0,#0x46
0002b4  f7fffffe          BL       OV7725_WriteReg
;;;127    	OV7725_WriteReg(0x0e,0x75);
0002b8  2175              MOVS     r1,#0x75
0002ba  200e              MOVS     r0,#0xe
0002bc  f7fffffe          BL       OV7725_WriteReg
;;;128    	OV7725_WriteReg(0x3d,0x82);
0002c0  2182              MOVS     r1,#0x82
0002c2  203d              MOVS     r0,#0x3d
0002c4  f7fffffe          BL       OV7725_WriteReg
;;;129    	
;;;130    	OV7725_WriteReg(0x0c,0x50);
0002c8  2150              MOVS     r1,#0x50
0002ca  200c              MOVS     r0,#0xc
0002cc  f7fffffe          BL       OV7725_WriteReg
;;;131    	OV7725_WriteReg(0x3e,0xe2);
0002d0  21e2              MOVS     r1,#0xe2
0002d2  203e              MOVS     r0,#0x3e
0002d4  f7fffffe          BL       OV7725_WriteReg
;;;132    	
;;;133    	OV7725_WriteReg(0x29,0x50);
0002d8  2150              MOVS     r1,#0x50
0002da  2029              MOVS     r0,#0x29
0002dc  f7fffffe          BL       OV7725_WriteReg
;;;134    	OV7725_WriteReg(0x2c,0x78);
0002e0  2178              MOVS     r1,#0x78
0002e2  202c              MOVS     r0,#0x2c
0002e4  f7fffffe          BL       OV7725_WriteReg
;;;135    }
0002e8  bd10              POP      {r4,pc}
;;;136    
                          ENDP

                  Cmos7725_init PROC
;;;146    ***************************************************************************/
;;;147    unsigned char Cmos7725_init(void)
0002ea  b510              PUSH     {r4,lr}
;;;148    {
;;;149    	unsigned char mmm;	
;;;150    
;;;151    	
;;;152    	InitI2C0();
0002ec  f7fffffe          BL       InitI2C0
;;;153    	OV7725_WriteReg(0xff, 0x01);
0002f0  2101              MOVS     r1,#1
0002f2  20ff              MOVS     r0,#0xff
0002f4  f7fffffe          BL       OV7725_WriteReg
;;;154       	mmm=0x80;
0002f8  2480              MOVS     r4,#0x80
;;;155    	if(0==OV7725_WriteReg(0x12, mmm)) 
0002fa  4621              MOV      r1,r4
0002fc  2012              MOVS     r0,#0x12
0002fe  f7fffffe          BL       OV7725_WriteReg
000302  b908              CBNZ     r0,|L1.776|
;;;156    	{
;;;157    		return 0 ;
000304  2000              MOVS     r0,#0
                  |L1.774|
;;;158    	}
;;;159    	delay_ms(10);
;;;160    	set_Cmos7725reg();	  
;;;161    	return 1; 
;;;162    } 
000306  bd10              POP      {r4,pc}
                  |L1.776|
000308  200a              MOVS     r0,#0xa               ;159
00030a  f7fffffe          BL       delay_ms
00030e  f7fffffe          BL       set_Cmos7725reg
000312  2001              MOVS     r0,#1                 ;161
000314  e7f7              B        |L1.774|
;;;163    
                          ENDP

                  OV7725_ReadReg PROC
;;;201      */
;;;202    uint8_t OV7725_ReadReg(uint16_t Addr)
000316  b570              PUSH     {r4-r6,lr}
;;;203    {
000318  4604              MOV      r4,r0
;;;204     	unsigned char regDat;
;;;205    	StartI2C0();
00031a  f7fffffe          BL       StartI2C0
;;;206    	if(0==I2CWrite0(OV7725_DEVICE_WRITE_ADDRESS))
00031e  2042              MOVS     r0,#0x42
000320  f7fffffe          BL       I2CWrite0
000324  b918              CBNZ     r0,|L1.814|
;;;207    	{
;;;208    		StopI2C0();
000326  f7fffffe          BL       StopI2C0
;;;209    		return(0);
00032a  2000              MOVS     r0,#0
                  |L1.812|
;;;210    	}
;;;211    	delay_us(100);
;;;212      	if(0==I2CWrite0(Addr))
;;;213    	{
;;;214    		StopI2C0();
;;;215    		return(0);
;;;216    	}
;;;217    	StopI2C0();
;;;218    	
;;;219    	delay_us(100);
;;;220    
;;;221    	StartI2C0();
;;;222    	if(0==I2CWrite0(OV7725_DEVICE_READ_ADDRESS))
;;;223    	{
;;;224    		StopI2C0();
;;;225    		return(0);
;;;226    	}
;;;227    	delay_us(100);
;;;228      	regDat=I2CRead0();
;;;229      	NoAck0();
;;;230      	StopI2C0();
;;;231      	return regDat;
;;;232    }
00032c  bd70              POP      {r4-r6,pc}
                  |L1.814|
00032e  2064              MOVS     r0,#0x64              ;211
000330  f7fffffe          BL       delay_us
000334  b2e0              UXTB     r0,r4                 ;212
000336  f7fffffe          BL       I2CWrite0
00033a  b918              CBNZ     r0,|L1.836|
00033c  f7fffffe          BL       StopI2C0
000340  2000              MOVS     r0,#0                 ;215
000342  e7f3              B        |L1.812|
                  |L1.836|
000344  f7fffffe          BL       StopI2C0
000348  2064              MOVS     r0,#0x64              ;219
00034a  f7fffffe          BL       delay_us
00034e  f7fffffe          BL       StartI2C0
000352  2041              MOVS     r0,#0x41              ;222
000354  f7fffffe          BL       I2CWrite0
000358  b918              CBNZ     r0,|L1.866|
00035a  f7fffffe          BL       StopI2C0
00035e  2000              MOVS     r0,#0                 ;225
000360  e7e4              B        |L1.812|
                  |L1.866|
000362  2064              MOVS     r0,#0x64              ;227
000364  f7fffffe          BL       delay_us
000368  f7fffffe          BL       I2CRead0
00036c  4605              MOV      r5,r0                 ;228
00036e  f7fffffe          BL       NoAck0
000372  f7fffffe          BL       StopI2C0
000376  4628              MOV      r0,r5                 ;231
000378  e7d8              B        |L1.812|
;;;233    
                          ENDP

